target datalayout = "e-m:e-p270:32:32-p271:32:32-p272:64:64-i64:64-i128:128-f80:128-n8:16:32:64-S128"
target triple = "x86_64-pc-linux-gnu"

%struct.sview_config_t = type { ptr, ptr, ptr, ptr, ptr, ptr, ptr, i16, i16, i8, i16, i32, i32, i32, i8, i32, i32, i32, i32, [10 x ptr], [10 x %struct.page_opts_t], [10 x i8], i16, i8, i8, i8, i8, i16, i32 }
%struct.page_opts_t = type { ptr, i8, ptr, ptr }
%struct._GtkTreeIter = type { i32, ptr, ptr, ptr }
%struct.popup_info = type { ptr, ptr, i32, i32, ptr, ptr, ptr, %struct._GtkTreeIter, ptr, ptr, i32, i8, ptr, ptr, i32, ptr, ptr, i32, i32 }

@working_sview_config = external global %struct.sview_config_t, align 8
@.str.37 = private unnamed_addr constant [28 x i8] c"thread got unknown type %d\0A\00", align 1

; Function Attrs: nounwind uwtable
define dso_local ptr @popup_thr(ptr noundef %0) #0 {
  %2 = alloca ptr, align 8
  %3 = alloca ptr, align 8
  %4 = alloca ptr, align 8
  %5 = alloca i32, align 4
  %6 = alloca i32, align 4
  store ptr %0, ptr %3, align 8
  call void @llvm.lifetime.start.p0(i64 8, ptr %4) #11
  store ptr null, ptr %4, align 8
  call void @llvm.lifetime.start.p0(i64 4, ptr %5) #11
  store i32 1, ptr %5, align 4
  %7 = load ptr, ptr %3, align 8
  %8 = getelementptr inbounds nuw %struct.popup_info, ptr %7, i32 0, i32 18
  %9 = load i32, ptr %8, align 4
  switch i32 %9, label %17 [
    i32 1, label %10
    i32 0, label %11
    i32 4, label %12
    i32 2, label %13
    i32 5, label %14
    i32 3, label %15
    i32 6, label %16
  ]

10:                                               ; preds = %1
  store ptr @specific_info_part, ptr %4, align 8
  br label %21

11:                                               ; preds = %1
  store ptr @specific_info_job, ptr %4, align 8
  br label %21

12:                                               ; preds = %1
  store ptr @specific_info_node, ptr %4, align 8
  br label %21

13:                                               ; preds = %1
  store ptr @specific_info_resv, ptr %4, align 8
  br label %21

14:                                               ; preds = %1
  store ptr @specific_info_front_end, ptr %4, align 8
  br label %21

15:                                               ; preds = %1
  store ptr @specific_info_bb, ptr %4, align 8
  br label %21

16:                                               ; preds = %1
  br label %17

17:                                               ; preds = %1, %16
  %18 = load ptr, ptr %3, align 8
  %19 = getelementptr inbounds nuw %struct.popup_info, ptr %18, i32 0, i32 18
  %20 = load i32, ptr %19, align 4
  call void (ptr, ...) @g_print(ptr noundef @.str.37, i32 noundef %20)
  store ptr null, ptr %2, align 8
  store i32 1, ptr %6, align 4
  br label %36

21:                                               ; preds = %15, %14, %13, %12, %11, %10
  %22 = load ptr, ptr %3, align 8
  %23 = getelementptr inbounds nuw %struct.popup_info, ptr %22, i32 0, i32 13
  store ptr %5, ptr %23, align 8
  br label %24

24:                                               ; preds = %27, %21
  %25 = load i32, ptr %5, align 4
  %26 = icmp ne i32 %25, 0
  br i1 %26, label %27, label %33

27:                                               ; preds = %24
  call void @gdk_threads_enter()
  %28 = load ptr, ptr %4, align 8
  %29 = load ptr, ptr %3, align 8
  call void %28(ptr noundef %29)
  call void @gdk_threads_leave()
  %30 = load i16, ptr getelementptr inbounds nuw (%struct.sview_config_t, ptr @working_sview_config, i32 0, i32 22), align 2
  %31 = zext i16 %30 to i32
  %32 = call i32 @sleep(i32 noundef %31)
  br label %24, !llvm.loop !45

33:                                               ; preds = %24
  %34 = load ptr, ptr %3, align 8
  %35 = getelementptr inbounds nuw %struct.popup_info, ptr %34, i32 0, i32 13
  store ptr null, ptr %35, align 8
  store ptr null, ptr %2, align 8
  store i32 1, ptr %6, align 4
  br label %36

36:                                               ; preds = %33, %17
  call void @llvm.lifetime.end.p0(i64 4, ptr %5) #11
  call void @llvm.lifetime.end.p0(i64 8, ptr %4) #11
  %37 = load ptr, ptr %2, align 8
  ret ptr %37
}