; Function Attrs: nounwind uwtable
define dso_local noundef ptr @popup_thr(ptr noundef %0) local_unnamed_addr #2 {
  %2 = alloca i32, align 4
  call void @llvm.lifetime.start.p0(i64 4, ptr nonnull %2) #16
  store i32 1, ptr %2, align 4
  %3 = getelementptr inbounds nuw i8, ptr %0, i64 148
  %4 = load i32, ptr %3, align 4
  %5 = icmp ult i32 %4, 6
  br i1 %5, label %switch.lookup, label %6

6:                                                ; preds = %1
  tail call void (ptr, ...) @g_print(ptr noundef nonnull @.str.37, i32 noundef %4) #16
  br label %13

switch.lookup:                                    ; preds = %1
  %7 = zext nneg i32 %4 to i64
  %switch.gep = getelementptr inbounds nuw [6 x ptr], ptr @switch.table.popup_thr, i64 0, i64 %7
  %switch.load = load ptr, ptr %switch.gep, align 8
  %8 = getelementptr inbounds nuw i8, ptr %0, i64 112
  store ptr %2, ptr %8, align 8
  br label %.lr.ph

.lr.ph:                                           ; preds = %switch.lookup, %.lr.ph
  call void @gdk_threads_enter() #16
  call void %switch.load(ptr noundef %0) #16
  call void @gdk_threads_leave() #16
  %9 = load i16, ptr getelementptr inbounds nuw (i8, ptr @working_sview_config, i64 506), align 2
  %10 = zext i16 %9 to i32
  %11 = call i32 @sleep(i32 noundef %10) #16
  %12 = load i32, ptr %2, align 4
  %.not = icmp eq i32 %12, 0
  br i1 %.not, label %._crit_edge, label %.lr.ph, !llvm.loop !43

._crit_edge:                                      ; preds = %.lr.ph
  store ptr null, ptr %8, align 8
  br label %13

13:                                               ; preds = %._crit_edge, %6
  call void @llvm.lifetime.end.p0(i64 4, ptr nonnull %2) #16
  ret ptr null
}